; Function Attrs: nounwind sspstrong uwtable
define internal range(i64 1, 0) i64 @match_hash(i64 noundef %0) #2 {
  %2 = inttoptr i64 %0 to ptr
  %3 = getelementptr inbounds nuw i8, ptr %2, i64 24
  %4 = load i64, ptr %3, align 8, !tbaa !31
  %.not.i = icmp eq i64 %4, 0
  br i1 %.not.i, label %5, label %match_check.exit

5:                                                ; preds = %1
  %6 = load i64, ptr @rb_eTypeError, align 8, !tbaa !18
  tail call void (i64, ptr, ...) @rb_raise(i64 noundef %6, ptr noundef nonnull @.str.76) #30
  unreachable

match_check.exit:                                 ; preds = %1
  %7 = getelementptr inbounds nuw i8, ptr %2, i64 16
  %8 = load i64, ptr %7, align 8, !tbaa !94
  %9 = tail call i64 @rb_str_hash(i64 noundef %8) #29
  %10 = tail call i64 @rb_hash_start(i64 noundef %9) #29
  %11 = tail call i64 @match_regexp(i64 noundef %0)
  %12 = inttoptr i64 %11 to ptr
  %13 = getelementptr inbounds nuw i8, ptr %12, i64 16
  %14 = load ptr, ptr %13, align 8, !tbaa !37
  %.not.i.i = icmp eq ptr %14, null
  br i1 %.not.i.i, label %23, label %15

15:                                               ; preds = %match_check.exit
  %16 = getelementptr inbounds nuw i8, ptr %12, i64 24
  %17 = load i64, ptr %16, align 8, !tbaa !52
  %.not3.i.i = icmp eq i64 %17, 0
  br i1 %.not3.i.i, label %23, label %18

18:                                               ; preds = %15
  %19 = inttoptr i64 %17 to ptr
  %20 = load i64, ptr %19, align 8, !tbaa !34, !noalias !243
  %21 = and i64 %20, 8192
  %.not.i.i.i.i.i = icmp eq i64 %21, 0
  %22 = getelementptr inbounds nuw i8, ptr %19, i64 24
  br i1 %.not.i.i.i.i.i, label %reg_hash.exit, label %RREGEXP_SRC_PTR.exit.i.i

RREGEXP_SRC_PTR.exit.i.i:                         ; preds = %18
  %.sroa.2.0.copyload.i.i.i.i = load ptr, ptr %22, align 8
  %.not4.i.i = icmp eq ptr %.sroa.2.0.copyload.i.i.i.i, null
  br i1 %.not4.i.i, label %23, label %reg_hash.exit

23:                                               ; preds = %RREGEXP_SRC_PTR.exit.i.i, %15, %match_check.exit
  %24 = load i64, ptr @rb_eTypeError, align 8, !tbaa !18
  tail call void (i64, ptr, ...) @rb_raise(i64 noundef %24, ptr noundef nonnull @.str.71) #30
  unreachable

reg_hash.exit:                                    ; preds = %18, %RREGEXP_SRC_PTR.exit.i.i
  %.sroa.2.0.i.i.i = phi ptr [ %.sroa.2.0.copyload.i.i.i.i, %RREGEXP_SRC_PTR.exit.i.i ], [ %22, %18 ]
  %.in.in.i = getelementptr inbounds nuw i8, ptr %14, i64 56
  %.in.i = load i32, ptr %.in.in.i, align 8, !tbaa !61
  %25 = zext i32 %.in.i to i64
  %26 = getelementptr inbounds nuw i8, ptr %19, i64 16
  %27 = load i64, ptr %26, align 8, !tbaa !35
  %28 = tail call i64 @rb_memhash(ptr noundef nonnull %.sroa.2.0.i.i.i, i64 noundef %27) #29
  %29 = tail call i64 @rb_st_hash_uint(i64 noundef %25, i64 noundef %28) #35
  %30 = tail call i64 @rb_st_hash_end(i64 noundef %29) #35
  %31 = tail call i64 @rb_st_hash_uint(i64 noundef %10, i64 noundef %30) #35
  %32 = getelementptr i8, ptr %2, i64 36
  %33 = load i32, ptr %32, align 4, !tbaa !40
  %34 = sext i32 %33 to i64
  %35 = tail call i64 @rb_st_hash_uint(i64 noundef %31, i64 noundef %34) #35
  %36 = getelementptr i8, ptr %2, i64 40
  %37 = load ptr, ptr %36, align 8, !tbaa !92
  %38 = shl nsw i64 %34, 3
  %39 = tail call i64 @rb_memhash(ptr noundef %37, i64 noundef %38) #29
  %40 = tail call i64 @rb_st_hash_uint(i64 noundef %35, i64 noundef %39) #35
  %41 = getelementptr i8, ptr %2, i64 48
  %42 = load ptr, ptr %41, align 8, !tbaa !93
  %43 = load i32, ptr %32, align 4, !tbaa !40
  %44 = sext i32 %43 to i64
  %45 = shl nsw i64 %44, 3
  %46 = tail call i64 @rb_memhash(ptr noundef %42, i64 noundef %45) #29
  %47 = tail call i64 @rb_st_hash_uint(i64 noundef %40, i64 noundef %46) #35
  %48 = tail call i64 @rb_st_hash_end(i64 noundef %47) #35
  %49 = and i64 %48, 4611686018427387903
  %50 = icmp slt i64 %48, 0
  %masksel.i = select i1 %50, i64 -4611686018427387904, i64 0
  %.0.i = or disjoint i64 %masksel.i, %49
  %51 = shl nsw i64 %.0.i, 1
  %52 = or disjoint i64 %51, 1
  ret i64 %52
}